target datalayout = "e-m:e-p270:32:32-p271:32:32-p272:64:64-i64:64-i128:128-f80:128-n8:16:32:64-S128"
target triple = "x86_64-pc-linux-gnu"

%struct.__va_list_tag = type { i32, i32, ptr, ptr }

@.str = private unnamed_addr constant [45 x i8] c"vsnprintf failed: %m with format string \22%s\22\00", align 1
@.str.1 = private unnamed_addr constant [11 x i8] c"psprintf.c\00", align 1
@__func__.pvsnprintf = private unnamed_addr constant [11 x i8] c"pvsnprintf\00", align 1
@.str.2 = private unnamed_addr constant [14 x i8] c"out of memory\00", align 1

; Function Attrs: nounwind uwtable
define dso_local ptr @psprintf(ptr noundef %0, ...) #0 {
  %2 = alloca ptr, align 8
  %3 = alloca ptr, align 8
  %4 = alloca i32, align 4
  %5 = alloca i64, align 8
  %6 = alloca ptr, align 8
  %7 = alloca [1 x %struct.__va_list_tag], align 16
  %8 = alloca i64, align 8
  %9 = alloca i32, align 4
  store ptr %0, ptr %3, align 8
  call void @llvm.lifetime.start.p0(i64 4, ptr %4) #7
  %10 = call ptr @__errno_location() #8
  %11 = load i32, ptr %10, align 4
  store i32 %11, ptr %4, align 4
  call void @llvm.lifetime.start.p0(i64 8, ptr %5) #7
  store i64 128, ptr %5, align 8
  br label %12

12:                                               ; preds = %34, %1
  call void @llvm.lifetime.start.p0(i64 8, ptr %6) #7
  call void @llvm.lifetime.start.p0(i64 24, ptr %7) #7
  call void @llvm.lifetime.start.p0(i64 8, ptr %8) #7
  %13 = load i64, ptr %5, align 8
  %14 = call ptr @palloc(i64 noundef %13)
  store ptr %14, ptr %6, align 8
  %15 = load i32, ptr %4, align 4
  %16 = call ptr @__errno_location() #8
  store i32 %15, ptr %16, align 4
  %17 = getelementptr inbounds [1 x %struct.__va_list_tag], ptr %7, i64 0, i64 0
  call void @llvm.va_start.p0(ptr %17)
  %18 = load ptr, ptr %6, align 8
  %19 = load i64, ptr %5, align 8
  %20 = load ptr, ptr %3, align 8
  %21 = getelementptr inbounds [1 x %struct.__va_list_tag], ptr %7, i64 0, i64 0
  %22 = call i64 @pvsnprintf(ptr noundef %18, i64 noundef %19, ptr noundef %20, ptr noundef %21)
  store i64 %22, ptr %8, align 8
  %23 = getelementptr inbounds [1 x %struct.__va_list_tag], ptr %7, i64 0, i64 0
  call void @llvm.va_end.p0(ptr %23)
  %24 = load i64, ptr %8, align 8
  %25 = load i64, ptr %5, align 8
  %26 = icmp ult i64 %24, %25
  br i1 %26, label %27, label %29

27:                                               ; preds = %12
  %28 = load ptr, ptr %6, align 8
  store ptr %28, ptr %2, align 8
  store i32 1, ptr %9, align 4
  br label %32

29:                                               ; preds = %12
  %30 = load ptr, ptr %6, align 8
  call void @pfree(ptr noundef %30)
  %31 = load i64, ptr %8, align 8
  store i64 %31, ptr %5, align 8
  store i32 0, ptr %9, align 4
  br label %32

32:                                               ; preds = %29, %27
  call void @llvm.lifetime.end.p0(i64 8, ptr %8) #7
  call void @llvm.lifetime.end.p0(i64 24, ptr %7) #7
  call void @llvm.lifetime.end.p0(i64 8, ptr %6) #7
  %33 = load i32, ptr %9, align 4
  switch i32 %33, label %35 [
    i32 0, label %34
  ]

34:                                               ; preds = %32
  br label %12

35:                                               ; preds = %32
  call void @llvm.lifetime.end.p0(i64 8, ptr %5) #7
  call void @llvm.lifetime.end.p0(i64 4, ptr %4) #7
  %36 = load ptr, ptr %2, align 8
  ret ptr %36
}

; Function Attrs: nocallback nofree nosync nounwind willreturn memory(argmem: readwrite)
declare void @llvm.lifetime.start.p0(i64 immarg, ptr captures(none)) #1

; Function Attrs: nounwind willreturn memory(none)
declare ptr @__errno_location() #2

declare ptr @palloc(i64 noundef) #3

; Function Attrs: nocallback nofree nosync nounwind willreturn
declare void @llvm.va_start.p0(ptr) #4

; Function Attrs: nounwind uwtable
define dso_local i64 @pvsnprintf(ptr noundef %0, i64 noundef %1, ptr noundef %2, ptr noundef %3) #0 {
  %5 = alloca i64, align 8
  %6 = alloca ptr, align 8
  %7 = alloca i64, align 8
  %8 = alloca ptr, align 8
  %9 = alloca ptr, align 8
  %10 = alloca i32, align 4
  %11 = alloca i32, align 4
  store ptr %0, ptr %6, align 8
  store i64 %1, ptr %7, align 8
  store ptr %2, ptr %8, align 8
  store ptr %3, ptr %9, align 8
  call void @llvm.lifetime.start.p0(i64 4, ptr %10) #7
  %12 = load ptr, ptr %6, align 8
  %13 = load i64, ptr %7, align 8
  %14 = load ptr, ptr %8, align 8
  %15 = load ptr, ptr %9, align 8
  %16 = call i32 @pg_vsnprintf(ptr noundef %12, i64 noundef %13, ptr noundef %14, ptr noundef %15)
  store i32 %16, ptr %10, align 4
  %17 = load i32, ptr %10, align 4
  %18 = icmp slt i32 %17, 0
  %19 = zext i1 %18 to i32
  %20 = icmp ne i32 %19, 0
  %21 = zext i1 %20 to i32
  %22 = sext i32 %21 to i64
  %23 = call i64 @llvm.expect.i64(i64 %22, i64 0)
  %24 = icmp ne i64 %23, 0
  br i1 %24, label %25, label %37

25:                                               ; preds = %4
  br label %26

26:                                               ; preds = %25
  br i1 true, label %27, label %29

27:                                               ; preds = %26
  %28 = call zeroext i1 @errstart_cold(i32 noundef 21, ptr noundef null) #9
  br i1 %28, label %31, label %34

29:                                               ; preds = %26
  %30 = call zeroext i1 @errstart(i32 noundef 21, ptr noundef null)
  br i1 %30, label %31, label %34

31:                                               ; preds = %29, %27
  %32 = load ptr, ptr %8, align 8
  %33 = call i32 (ptr, ...) @errmsg_internal(ptr noundef @.str, ptr noundef %32)
  call void @errfinish(ptr noundef @.str.1, i32 noundef 113, ptr noundef @__func__.pvsnprintf)
  br label %34

34:                                               ; preds = %31, %29, %27
  unreachable

35:                                               ; No predecessors!
  br label %36

36:                                               ; preds = %35
  br label %37

37:                                               ; preds = %36, %4
  %38 = load i32, ptr %10, align 4
  %39 = sext i32 %38 to i64
  %40 = load i64, ptr %7, align 8
  %41 = icmp ult i64 %39, %40
  br i1 %41, label %42, label %45

42:                                               ; preds = %37
  %43 = load i32, ptr %10, align 4
  %44 = sext i32 %43 to i64
  store i64 %44, ptr %5, align 8
  store i32 1, ptr %11, align 4
  br label %71

45:                                               ; preds = %37
  %46 = load i32, ptr %10, align 4
  %47 = sext i32 %46 to i64
  %48 = icmp ugt i64 %47, 1073741822
  %49 = zext i1 %48 to i32
  %50 = icmp ne i32 %49, 0
  %51 = zext i1 %50 to i32
  %52 = sext i32 %51 to i64
  %53 = call i64 @llvm.expect.i64(i64 %52, i64 0)
  %54 = icmp ne i64 %53, 0
  br i1 %54, label %55, label %67

55:                                               ; preds = %45
  br label %56

56:                                               ; preds = %55
  br i1 true, label %57, label %59

57:                                               ; preds = %56
  %58 = call zeroext i1 @errstart_cold(i32 noundef 21, ptr noundef null) #9
  br i1 %58, label %61, label %64

59:                                               ; preds = %56
  %60 = call zeroext i1 @errstart(i32 noundef 21, ptr noundef null)
  br i1 %60, label %61, label %64

61:                                               ; preds = %59, %57
  %62 = call i32 @errcode(i32 noundef 261)
  %63 = call i32 (ptr, ...) @errmsg(ptr noundef @.str.2)
  call void @errfinish(ptr noundef @.str.1, i32 noundef 140, ptr noundef @__func__.pvsnprintf)
  br label %64

64:                                               ; preds = %61, %59, %57
  unreachable

65:                                               ; No predecessors!
  br label %66

66:                                               ; preds = %65
  br label %67

67:                                               ; preds = %66, %45
  %68 = load i32, ptr %10, align 4
  %69 = add i32 %68, 1
  %70 = sext i32 %69 to i64
  store i64 %70, ptr %5, align 8
  store i32 1, ptr %11, align 4
  br label %71

71:                                               ; preds = %67, %42
  call void @llvm.lifetime.end.p0(i64 4, ptr %10) #7
  %72 = load i64, ptr %5, align 8
  ret i64 %72
}

; Function Attrs: nocallback nofree nosync nounwind willreturn
declare void @llvm.va_end.p0(ptr) #4

declare void @pfree(ptr noundef) #3

; Function Attrs: nocallback nofree nosync nounwind willreturn memory(argmem: readwrite)
declare void @llvm.lifetime.end.p0(i64 immarg, ptr captures(none)) #1

declare i32 @pg_vsnprintf(ptr noundef, i64 noundef, ptr noundef, ptr noundef) #3

; Function Attrs: nocallback nofree nosync nounwind willreturn memory(none)
declare i64 @llvm.expect.i64(i64, i64) #5

; Function Attrs: cold
declare zeroext i1 @errstart_cold(i32 noundef, ptr noundef) #6

declare zeroext i1 @errstart(i32 noundef, ptr noundef) #3

declare i32 @errmsg_internal(ptr noundef, ...) #3

declare void @errfinish(ptr noundef, i32 noundef, ptr noundef) #3

declare i32 @errcode(i32 noundef) #3

declare i32 @errmsg(ptr noundef, ...) #3


!llvm.module.flags = !{!0, !1, !2, !3}

!0 = !{i32 1, !"wchar_size", i32 4}
!1 = !{i32 8, !"PIC Level", i32 2}
!2 = !{i32 7, !"PIE Level", i32 2}
!3 = !{i32 7, !"uwtable", i32 2}
